; Function Attrs: mustprogress uwtable
define hidden void @_ZN6solver11assert_exprEP4exprS1_(ptr noundef nonnull align 8 dereferenceable(96) %0, ptr noundef %1, ptr noundef %2) local_unnamed_addr #3 align 2 personality ptr @__gxx_personality_v0 {
  %4 = alloca %class.obj_ref.54, align 8
  %5 = alloca %class.obj_ref.54, align 8
  %6 = load ptr, ptr %0, align 8, !tbaa !3
  %7 = getelementptr inbounds nuw i8, ptr %6, i64 72
  %8 = load ptr, ptr %7, align 8
  %9 = tail call noundef nonnull align 8 dereferenceable(976) ptr %8(ptr noundef nonnull align 8 dereferenceable(72) %0)
  call void @llvm.lifetime.start.p0(i64 16, ptr nonnull %4) #25
  store ptr %1, ptr %4, align 8, !tbaa !77
  %10 = getelementptr inbounds nuw i8, ptr %4, i64 8
  store ptr %9, ptr %10, align 8, !tbaa !6
  %.not.i.i = icmp eq ptr %1, null
  br i1 %.not.i.i, label %_ZN7obj_refI4expr11ast_managerEC2EPS0_RS1_.exit, label %_ZN11ast_manager7inc_refEP3ast.exit.i.i

_ZN11ast_manager7inc_refEP3ast.exit.i.i:          ; preds = %3
  %11 = getelementptr inbounds nuw i8, ptr %1, i64 8
  %12 = load i32, ptr %11, align 4, !tbaa !14
  %13 = add i32 %12, 1
  store i32 %13, ptr %11, align 4, !tbaa !14
  br label %_ZN7obj_refI4expr11ast_managerEC2EPS0_RS1_.exit

_ZN7obj_refI4expr11ast_managerEC2EPS0_RS1_.exit:  ; preds = %3, %_ZN11ast_manager7inc_refEP3ast.exit.i.i
  call void @llvm.lifetime.start.p0(i64 16, ptr nonnull %5) #25
  store ptr %2, ptr %5, align 8, !tbaa !77
  %14 = getelementptr inbounds nuw i8, ptr %5, i64 8
  store ptr %9, ptr %14, align 8, !tbaa !6
  %.not.i.i8 = icmp eq ptr %2, null
  br i1 %.not.i.i8, label %_ZN7obj_refI4expr11ast_managerEC2EPS0_RS1_.exit10, label %_ZN11ast_manager7inc_refEP3ast.exit.i.i9

_ZN11ast_manager7inc_refEP3ast.exit.i.i9:         ; preds = %_ZN7obj_refI4expr11ast_managerEC2EPS0_RS1_.exit
  %15 = getelementptr inbounds nuw i8, ptr %2, i64 8
  %16 = load i32, ptr %15, align 4, !tbaa !14
  %17 = add i32 %16, 1
  store i32 %17, ptr %15, align 4, !tbaa !14
  br label %_ZN7obj_refI4expr11ast_managerEC2EPS0_RS1_.exit10

_ZN7obj_refI4expr11ast_managerEC2EPS0_RS1_.exit10: ; preds = %_ZN11ast_manager7inc_refEP3ast.exit.i.i9, %_ZN7obj_refI4expr11ast_managerEC2EPS0_RS1_.exit
  %18 = load ptr, ptr %0, align 8, !tbaa !3
  %19 = getelementptr inbounds nuw i8, ptr %18, i64 184
  %20 = load ptr, ptr %19, align 8
  invoke void %20(ptr noundef nonnull align 8 dereferenceable(96) %0, ptr noundef %1, ptr noundef %2)
          to label %21 unwind label %40

21:                                               ; preds = %_ZN7obj_refI4expr11ast_managerEC2EPS0_RS1_.exit10
  br i1 %.not.i.i8, label %_ZN7obj_refI4expr11ast_managerED2Ev.exit, label %22

22:                                               ; preds = %21
  %23 = getelementptr inbounds nuw i8, ptr %2, i64 8
  %24 = load i32, ptr %23, align 4, !tbaa !14
  %25 = add i32 %24, -1
  store i32 %25, ptr %23, align 4, !tbaa !14
  %26 = icmp eq i32 %25, 0
  br i1 %26, label %27, label %_ZN7obj_refI4expr11ast_managerED2Ev.exit

27:                                               ; preds = %22
  invoke void @_ZN11ast_manager11delete_nodeEP3ast(ptr noundef nonnull align 8 dereferenceable(976) %9, ptr noundef nonnull %2)
          to label %_ZN7obj_refI4expr11ast_managerED2Ev.exit unwind label %28

28:                                               ; preds = %27
  %29 = landingpad { ptr, i32 }
          catch ptr null
  %30 = extractvalue { ptr, i32 } %29, 0
  tail call void @__clang_call_terminate(ptr %30) #26
  unreachable

_ZN7obj_refI4expr11ast_managerED2Ev.exit:         ; preds = %21, %22, %27
  call void @llvm.lifetime.end.p0(i64 16, ptr nonnull %5) #25
  br i1 %.not.i.i, label %_ZN7obj_refI4expr11ast_managerED2Ev.exit13, label %31

31:                                               ; preds = %_ZN7obj_refI4expr11ast_managerED2Ev.exit
  %32 = getelementptr inbounds nuw i8, ptr %1, i64 8
  %33 = load i32, ptr %32, align 4, !tbaa !14
  %34 = add i32 %33, -1
  store i32 %34, ptr %32, align 4, !tbaa !14
  %35 = icmp eq i32 %34, 0
  br i1 %35, label %36, label %_ZN7obj_refI4expr11ast_managerED2Ev.exit13

36:                                               ; preds = %31
  invoke void @_ZN11ast_manager11delete_nodeEP3ast(ptr noundef nonnull align 8 dereferenceable(976) %9, ptr noundef nonnull %1)
          to label %_ZN7obj_refI4expr11ast_managerED2Ev.exit13 unwind label %37

37:                                               ; preds = %36
  %38 = landingpad { ptr, i32 }
          catch ptr null
  %39 = extractvalue { ptr, i32 } %38, 0
  tail call void @__clang_call_terminate(ptr %39) #26
  unreachable

_ZN7obj_refI4expr11ast_managerED2Ev.exit13:       ; preds = %_ZN7obj_refI4expr11ast_managerED2Ev.exit, %31, %36
  call void @llvm.lifetime.end.p0(i64 16, ptr nonnull %4) #25
  ret void

40:                                               ; preds = %_ZN7obj_refI4expr11ast_managerEC2EPS0_RS1_.exit10
  %41 = landingpad { ptr, i32 }
          cleanup
  call void @_ZN7obj_refI4expr11ast_managerED2Ev(ptr noundef nonnull align 8 dereferenceable(16) %5) #25
  call void @llvm.lifetime.end.p0(i64 16, ptr nonnull %5) #25
  call void @_ZN7obj_refI4expr11ast_managerED2Ev(ptr noundef nonnull align 8 dereferenceable(16) %4) #25
  call void @llvm.lifetime.end.p0(i64 16, ptr nonnull %4) #25
  resume { ptr, i32 } %41
}